target datalayout = "e-m:e-p270:32:32-p271:32:32-p272:64:64-i64:64-i128:128-f80:128-n8:16:32:64-S128"
target triple = "x86_64-pc-linux-gnu"

@rb_cSocket = external global i64, align 8
@tcp_fast_fallback = global i64 0, align 8
@.str.6 = private unnamed_addr constant [7 x i8] c"Socket\00", align 1
@rb_cBasicSocket = external global i64, align 8
@.str.7 = private unnamed_addr constant [26 x i8] c"RUBY_TCP_NO_FAST_FALLBACK\00", align 1
@.str.8 = private unnamed_addr constant [2 x i8] c"0\00", align 1
@.str.9 = private unnamed_addr constant [18 x i8] c"tcp_fast_fallback\00", align 1
@.str.10 = private unnamed_addr constant [11 x i8] c"initialize\00", align 1
@.str.11 = private unnamed_addr constant [8 x i8] c"connect\00", align 1
@.str.12 = private unnamed_addr constant [19 x i8] c"__connect_nonblock\00", align 1
@.str.13 = private unnamed_addr constant [5 x i8] c"bind\00", align 1
@.str.14 = private unnamed_addr constant [7 x i8] c"listen\00", align 1
@.str.15 = private unnamed_addr constant [7 x i8] c"accept\00", align 1
@.str.16 = private unnamed_addr constant [18 x i8] c"__accept_nonblock\00", align 1
@.str.17 = private unnamed_addr constant [10 x i8] c"sysaccept\00", align 1
@.str.18 = private unnamed_addr constant [9 x i8] c"recvfrom\00", align 1
@.str.19 = private unnamed_addr constant [20 x i8] c"__recvfrom_nonblock\00", align 1
@.str.20 = private unnamed_addr constant [11 x i8] c"socketpair\00", align 1
@.str.21 = private unnamed_addr constant [5 x i8] c"pair\00", align 1
@.str.22 = private unnamed_addr constant [12 x i8] c"gethostname\00", align 1
@.str.23 = private unnamed_addr constant [14 x i8] c"gethostbyname\00", align 1
@.str.24 = private unnamed_addr constant [14 x i8] c"gethostbyaddr\00", align 1
@.str.25 = private unnamed_addr constant [14 x i8] c"getservbyname\00", align 1
@.str.26 = private unnamed_addr constant [14 x i8] c"getservbyport\00", align 1
@.str.27 = private unnamed_addr constant [12 x i8] c"getaddrinfo\00", align 1
@.str.28 = private unnamed_addr constant [12 x i8] c"getnameinfo\00", align 1
@.str.29 = private unnamed_addr constant [12 x i8] c"sockaddr_in\00", align 1
@.str.30 = private unnamed_addr constant [17 x i8] c"pack_sockaddr_in\00", align 1
@.str.31 = private unnamed_addr constant [19 x i8] c"unpack_sockaddr_in\00", align 1
@.str.32 = private unnamed_addr constant [12 x i8] c"sockaddr_un\00", align 1
@.str.33 = private unnamed_addr constant [17 x i8] c"pack_sockaddr_un\00", align 1
@.str.34 = private unnamed_addr constant [19 x i8] c"unpack_sockaddr_un\00", align 1
@.str.35 = private unnamed_addr constant [16 x i8] c"ip_address_list\00", align 1
@.str.36 = private unnamed_addr constant [19 x i8] c"tcp_fast_fallback=\00", align 1
@.str.37 = private unnamed_addr constant [14 x i8] c"wait_writable\00", align 1
@sym_wait_writable = internal global i64 0, align 8

; Function Attrs: inlinehint nounwind sspstrong willreturn memory(read) uwtable
define internal i64 @rb_intern_const(ptr noundef nonnull %0) #6 {
  %2 = alloca ptr, align 8
  %3 = alloca i64, align 8
  store ptr %0, ptr %2, align 8, !tbaa !6
  call void @llvm.lifetime.start.p0(i64 8, ptr %3) #24
  %4 = load ptr, ptr %2, align 8, !tbaa !6
  %5 = call i64 @strlen(ptr noundef %4) #25
  store i64 %5, ptr %3, align 8, !tbaa !11
  %6 = load ptr, ptr %2, align 8, !tbaa !6
  %7 = load i64, ptr %3, align 8, !tbaa !11
  %8 = call i64 @rb_intern2(ptr noundef %6, i64 noundef %7)
  call void @llvm.lifetime.end.p0(i64 8, ptr %3) #24
  ret i64 %8
}

; Function Attrs: nounwind sspstrong uwtable
define void @Init_socket() #0 {
  %1 = alloca ptr, align 8
  %2 = alloca i64, align 8
  call void @rb_ext_ractor_safe(i1 noundef zeroext true)
  call void @rsock_init_basicsocket()
  %3 = load i64, ptr @rb_cBasicSocket, align 8, !tbaa !11
  %4 = call i64 @rb_define_class(ptr noundef @.str.6, i64 noundef %3)
  store i64 %4, ptr @rb_cSocket, align 8, !tbaa !11
  call void @rsock_init_socket_init()
  call void @llvm.lifetime.start.p0(i64 8, ptr %1) #24
  %5 = call ptr @getenv(ptr noundef @.str.7) #24
  store ptr %5, ptr %1, align 8, !tbaa !6
  call void @llvm.lifetime.start.p0(i64 8, ptr %2) #24
  %6 = load ptr, ptr %1, align 8, !tbaa !6
  %7 = icmp eq ptr %6, null
  br i1 %7, label %12, label %8

8:                                                ; preds = %0
  %9 = load ptr, ptr %1, align 8, !tbaa !6
  %10 = call i32 @strcmp(ptr noundef %9, ptr noundef @.str.8) #25
  %11 = icmp eq i32 %10, 0
  br i1 %11, label %12, label %13

12:                                               ; preds = %8, %0
  store i64 20, ptr %2, align 8, !tbaa !11
  br label %14

13:                                               ; preds = %8
  store i64 0, ptr %2, align 8, !tbaa !11
  br label %14

14:                                               ; preds = %13, %12
  %15 = call i64 @rb_intern_const(ptr noundef @.str.9) #25
  store i64 %15, ptr @tcp_fast_fallback, align 8, !tbaa !11
  %16 = load i64, ptr @rb_cSocket, align 8, !tbaa !11
  %17 = load i64, ptr @tcp_fast_fallback, align 8, !tbaa !11
  %18 = load i64, ptr %2, align 8, !tbaa !11
  %19 = call i64 @rb_ivar_set(i64 noundef %16, i64 noundef %17, i64 noundef %18)
  %20 = load i64, ptr @rb_cSocket, align 8, !tbaa !11
  call void @rb_define_method(i64 noundef %20, ptr noundef @.str.10, ptr noundef @sock_initialize, i32 noundef -1)
  %21 = load i64, ptr @rb_cSocket, align 8, !tbaa !11
  call void @rb_define_method(i64 noundef %21, ptr noundef @.str.11, ptr noundef @sock_connect, i32 noundef 1)
  %22 = load i64, ptr @rb_cSocket, align 8, !tbaa !11
  call void @rb_define_private_method(i64 noundef %22, ptr noundef @.str.12, ptr noundef @sock_connect_nonblock, i32 noundef 2)
  %23 = load i64, ptr @rb_cSocket, align 8, !tbaa !11
  call void @rb_define_method(i64 noundef %23, ptr noundef @.str.13, ptr noundef @sock_bind, i32 noundef 1)
  %24 = load i64, ptr @rb_cSocket, align 8, !tbaa !11
  call void @rb_define_method(i64 noundef %24, ptr noundef @.str.14, ptr noundef @rsock_sock_listen, i32 noundef 1)
  %25 = load i64, ptr @rb_cSocket, align 8, !tbaa !11
  call void @rb_define_method(i64 noundef %25, ptr noundef @.str.15, ptr noundef @sock_accept, i32 noundef 0)
  %26 = load i64, ptr @rb_cSocket, align 8, !tbaa !11
  call void @rb_define_private_method(i64 noundef %26, ptr noundef @.str.16, ptr noundef @sock_accept_nonblock, i32 noundef 1)
  %27 = load i64, ptr @rb_cSocket, align 8, !tbaa !11
  call void @rb_define_method(i64 noundef %27, ptr noundef @.str.17, ptr noundef @sock_sysaccept, i32 noundef 0)
  %28 = load i64, ptr @rb_cSocket, align 8, !tbaa !11
  call void @rb_define_method(i64 noundef %28, ptr noundef @.str.18, ptr noundef @sock_recvfrom, i32 noundef -1)
  %29 = load i64, ptr @rb_cSocket, align 8, !tbaa !11
  call void @rb_define_private_method(i64 noundef %29, ptr noundef @.str.19, ptr noundef @sock_recvfrom_nonblock, i32 noundef 4)
  %30 = load i64, ptr @rb_cSocket, align 8, !tbaa !11
  call void @rb_define_singleton_method(i64 noundef %30, ptr noundef @.str.20, ptr noundef @rsock_sock_s_socketpair, i32 noundef -1)
  %31 = load i64, ptr @rb_cSocket, align 8, !tbaa !11
  call void @rb_define_singleton_method(i64 noundef %31, ptr noundef @.str.21, ptr noundef @rsock_sock_s_socketpair, i32 noundef -1)
  %32 = load i64, ptr @rb_cSocket, align 8, !tbaa !11
  call void @rb_define_singleton_method(i64 noundef %32, ptr noundef @.str.22, ptr noundef @sock_gethostname, i32 noundef 0)
  %33 = load i64, ptr @rb_cSocket, align 8, !tbaa !11
  call void @rb_define_singleton_method(i64 noundef %33, ptr noundef @.str.23, ptr noundef @sock_s_gethostbyname, i32 noundef 1)
  %34 = load i64, ptr @rb_cSocket, align 8, !tbaa !11
  call void @rb_define_singleton_method(i64 noundef %34, ptr noundef @.str.24, ptr noundef @sock_s_gethostbyaddr, i32 noundef -1)
  %35 = load i64, ptr @rb_cSocket, align 8, !tbaa !11
  call void @rb_define_singleton_method(i64 noundef %35, ptr noundef @.str.25, ptr noundef @sock_s_getservbyname, i32 noundef -1)
  %36 = load i64, ptr @rb_cSocket, align 8, !tbaa !11
  call void @rb_define_singleton_method(i64 noundef %36, ptr noundef @.str.26, ptr noundef @sock_s_getservbyport, i32 noundef -1)
  %37 = load i64, ptr @rb_cSocket, align 8, !tbaa !11
  call void @rb_define_singleton_method(i64 noundef %37, ptr noundef @.str.27, ptr noundef @sock_s_getaddrinfo, i32 noundef -1)
  %38 = load i64, ptr @rb_cSocket, align 8, !tbaa !11
  call void @rb_define_singleton_method(i64 noundef %38, ptr noundef @.str.28, ptr noundef @sock_s_getnameinfo, i32 noundef -1)
  %39 = load i64, ptr @rb_cSocket, align 8, !tbaa !11
  call void @rb_define_singleton_method(i64 noundef %39, ptr noundef @.str.29, ptr noundef @sock_s_pack_sockaddr_in, i32 noundef 2)
  %40 = load i64, ptr @rb_cSocket, align 8, !tbaa !11
  call void @rb_define_singleton_method(i64 noundef %40, ptr noundef @.str.30, ptr noundef @sock_s_pack_sockaddr_in, i32 noundef 2)
  %41 = load i64, ptr @rb_cSocket, align 8, !tbaa !11
  call void @rb_define_singleton_method(i64 noundef %41, ptr noundef @.str.31, ptr noundef @sock_s_unpack_sockaddr_in, i32 noundef 1)
  %42 = load i64, ptr @rb_cSocket, align 8, !tbaa !11
  call void @rb_define_singleton_method(i64 noundef %42, ptr noundef @.str.32, ptr noundef @sock_s_pack_sockaddr_un, i32 noundef 1)
  %43 = load i64, ptr @rb_cSocket, align 8, !tbaa !11
  call void @rb_define_singleton_method(i64 noundef %43, ptr noundef @.str.33, ptr noundef @sock_s_pack_sockaddr_un, i32 noundef 1)
  %44 = load i64, ptr @rb_cSocket, align 8, !tbaa !11
  call void @rb_define_singleton_method(i64 noundef %44, ptr noundef @.str.34, ptr noundef @sock_s_unpack_sockaddr_un, i32 noundef 1)
  %45 = load i64, ptr @rb_cSocket, align 8, !tbaa !11
  call void @rb_define_singleton_method(i64 noundef %45, ptr noundef @.str.35, ptr noundef @socket_s_ip_address_list, i32 noundef 0)
  %46 = load i64, ptr @rb_cSocket, align 8, !tbaa !11
  call void @rb_define_singleton_method(i64 noundef %46, ptr noundef @.str.9, ptr noundef @socket_s_tcp_fast_fallback, i32 noundef 0)
  %47 = load i64, ptr @rb_cSocket, align 8, !tbaa !11
  call void @rb_define_singleton_method(i64 noundef %47, ptr noundef @.str.36, ptr noundef @socket_s_tcp_fast_fallback_set, i32 noundef 1)
  %48 = call i64 @rb_intern(ptr noundef @.str.37)
  %49 = call i64 @rb_id2sym(i64 noundef %48)
  store i64 %49, ptr @sym_wait_writable, align 8, !tbaa !11
  call void @llvm.lifetime.end.p0(i64 8, ptr %2) #24
  call void @llvm.lifetime.end.p0(i64 8, ptr %1) #24
  ret void
}