; Function Attrs: nounwind sspstrong uwtable
define void @Init_socket() local_unnamed_addr #0 {
  tail call void @rb_ext_ractor_safe(i1 noundef zeroext true) #16
  tail call void @rsock_init_basicsocket() #16
  %1 = load i64, ptr @rb_cBasicSocket, align 8, !tbaa !10
  %2 = tail call i64 @rb_define_class(ptr noundef nonnull @.str.6, i64 noundef %1) #16
  store i64 %2, ptr @rb_cSocket, align 8, !tbaa !10
  tail call void @rsock_init_socket_init() #16
  %3 = tail call ptr @getenv(ptr noundef nonnull @.str.7) #16
  %4 = icmp eq ptr %3, null
  br i1 %4, label %.tail, label %sub_0

sub_0:                                            ; preds = %0
  %5 = load i8, ptr %3, align 1
  %.not = icmp eq i8 %5, 48
  br i1 %.not, label %sub_1, label %.tail

sub_1:                                            ; preds = %sub_0
  %6 = getelementptr inbounds nuw i8, ptr %3, i64 1
  %7 = load i8, ptr %6, align 1
  %8 = icmp eq i8 %7, 0
  %9 = select i1 %8, i64 20, i64 0
  br label %.tail

.tail:                                            ; preds = %sub_1, %sub_0, %0
  %.0 = phi i64 [ 20, %0 ], [ 0, %sub_0 ], [ %9, %sub_1 ]
  %10 = tail call i64 @rb_intern2(ptr noundef nonnull @.str.9, i64 noundef 17) #16
  store i64 %10, ptr @tcp_fast_fallback, align 8, !tbaa !10
  %11 = load i64, ptr @rb_cSocket, align 8, !tbaa !10
  %12 = tail call i64 @rb_ivar_set(i64 noundef %11, i64 noundef %10, i64 noundef %.0) #16
  %13 = load i64, ptr @rb_cSocket, align 8, !tbaa !10
  tail call void @rb_define_method(i64 noundef %13, ptr noundef nonnull @.str.10, ptr noundef nonnull @sock_initialize, i32 noundef -1) #16
  %14 = load i64, ptr @rb_cSocket, align 8, !tbaa !10
  tail call void @rb_define_method(i64 noundef %14, ptr noundef nonnull @.str.11, ptr noundef nonnull @sock_connect, i32 noundef 1) #16
  %15 = load i64, ptr @rb_cSocket, align 8, !tbaa !10
  tail call void @rb_define_private_method(i64 noundef %15, ptr noundef nonnull @.str.12, ptr noundef nonnull @sock_connect_nonblock, i32 noundef 2) #16
  %16 = load i64, ptr @rb_cSocket, align 8, !tbaa !10
  tail call void @rb_define_method(i64 noundef %16, ptr noundef nonnull @.str.13, ptr noundef nonnull @sock_bind, i32 noundef 1) #16
  %17 = load i64, ptr @rb_cSocket, align 8, !tbaa !10
  tail call void @rb_define_method(i64 noundef %17, ptr noundef nonnull @.str.14, ptr noundef nonnull @rsock_sock_listen, i32 noundef 1) #16
  %18 = load i64, ptr @rb_cSocket, align 8, !tbaa !10
  tail call void @rb_define_method(i64 noundef %18, ptr noundef nonnull @.str.15, ptr noundef nonnull @sock_accept, i32 noundef 0) #16
  %19 = load i64, ptr @rb_cSocket, align 8, !tbaa !10
  tail call void @rb_define_private_method(i64 noundef %19, ptr noundef nonnull @.str.16, ptr noundef nonnull @sock_accept_nonblock, i32 noundef 1) #16
  %20 = load i64, ptr @rb_cSocket, align 8, !tbaa !10
  tail call void @rb_define_method(i64 noundef %20, ptr noundef nonnull @.str.17, ptr noundef nonnull @sock_sysaccept, i32 noundef 0) #16
  %21 = load i64, ptr @rb_cSocket, align 8, !tbaa !10
  tail call void @rb_define_method(i64 noundef %21, ptr noundef nonnull @.str.18, ptr noundef nonnull @sock_recvfrom, i32 noundef -1) #16
  %22 = load i64, ptr @rb_cSocket, align 8, !tbaa !10
  tail call void @rb_define_private_method(i64 noundef %22, ptr noundef nonnull @.str.19, ptr noundef nonnull @sock_recvfrom_nonblock, i32 noundef 4) #16
  %23 = load i64, ptr @rb_cSocket, align 8, !tbaa !10
  tail call void @rb_define_singleton_method(i64 noundef %23, ptr noundef nonnull @.str.20, ptr noundef nonnull @rsock_sock_s_socketpair, i32 noundef -1) #16
  %24 = load i64, ptr @rb_cSocket, align 8, !tbaa !10
  tail call void @rb_define_singleton_method(i64 noundef %24, ptr noundef nonnull @.str.21, ptr noundef nonnull @rsock_sock_s_socketpair, i32 noundef -1) #16
  %25 = load i64, ptr @rb_cSocket, align 8, !tbaa !10
  tail call void @rb_define_singleton_method(i64 noundef %25, ptr noundef nonnull @.str.22, ptr noundef nonnull @sock_gethostname, i32 noundef 0) #16
  %26 = load i64, ptr @rb_cSocket, align 8, !tbaa !10
  tail call void @rb_define_singleton_method(i64 noundef %26, ptr noundef nonnull @.str.23, ptr noundef nonnull @sock_s_gethostbyname, i32 noundef 1) #16
  %27 = load i64, ptr @rb_cSocket, align 8, !tbaa !10
  tail call void @rb_define_singleton_method(i64 noundef %27, ptr noundef nonnull @.str.24, ptr noundef nonnull @sock_s_gethostbyaddr, i32 noundef -1) #16
  %28 = load i64, ptr @rb_cSocket, align 8, !tbaa !10
  tail call void @rb_define_singleton_method(i64 noundef %28, ptr noundef nonnull @.str.25, ptr noundef nonnull @sock_s_getservbyname, i32 noundef -1) #16
  %29 = load i64, ptr @rb_cSocket, align 8, !tbaa !10
  tail call void @rb_define_singleton_method(i64 noundef %29, ptr noundef nonnull @.str.26, ptr noundef nonnull @sock_s_getservbyport, i32 noundef -1) #16
  %30 = load i64, ptr @rb_cSocket, align 8, !tbaa !10
  tail call void @rb_define_singleton_method(i64 noundef %30, ptr noundef nonnull @.str.27, ptr noundef nonnull @sock_s_getaddrinfo, i32 noundef -1) #16
  %31 = load i64, ptr @rb_cSocket, align 8, !tbaa !10
  tail call void @rb_define_singleton_method(i64 noundef %31, ptr noundef nonnull @.str.28, ptr noundef nonnull @sock_s_getnameinfo, i32 noundef -1) #16
  %32 = load i64, ptr @rb_cSocket, align 8, !tbaa !10
  tail call void @rb_define_singleton_method(i64 noundef %32, ptr noundef nonnull @.str.29, ptr noundef nonnull @sock_s_pack_sockaddr_in, i32 noundef 2) #16
  %33 = load i64, ptr @rb_cSocket, align 8, !tbaa !10
  tail call void @rb_define_singleton_method(i64 noundef %33, ptr noundef nonnull @.str.30, ptr noundef nonnull @sock_s_pack_sockaddr_in, i32 noundef 2) #16
  %34 = load i64, ptr @rb_cSocket, align 8, !tbaa !10
  tail call void @rb_define_singleton_method(i64 noundef %34, ptr noundef nonnull @.str.31, ptr noundef nonnull @sock_s_unpack_sockaddr_in, i32 noundef 1) #16
  %35 = load i64, ptr @rb_cSocket, align 8, !tbaa !10
  tail call void @rb_define_singleton_method(i64 noundef %35, ptr noundef nonnull @.str.32, ptr noundef nonnull @sock_s_pack_sockaddr_un, i32 noundef 1) #16
  %36 = load i64, ptr @rb_cSocket, align 8, !tbaa !10
  tail call void @rb_define_singleton_method(i64 noundef %36, ptr noundef nonnull @.str.33, ptr noundef nonnull @sock_s_pack_sockaddr_un, i32 noundef 1) #16
  %37 = load i64, ptr @rb_cSocket, align 8, !tbaa !10
  tail call void @rb_define_singleton_method(i64 noundef %37, ptr noundef nonnull @.str.34, ptr noundef nonnull @sock_s_unpack_sockaddr_un, i32 noundef 1) #16
  %38 = load i64, ptr @rb_cSocket, align 8, !tbaa !10
  tail call void @rb_define_singleton_method(i64 noundef %38, ptr noundef nonnull @.str.35, ptr noundef nonnull @socket_s_ip_address_list, i32 noundef 0) #16
  %39 = load i64, ptr @rb_cSocket, align 8, !tbaa !10
  tail call void @rb_define_singleton_method(i64 noundef %39, ptr noundef nonnull @.str.9, ptr noundef nonnull @socket_s_tcp_fast_fallback, i32 noundef 0) #16
  %40 = load i64, ptr @rb_cSocket, align 8, !tbaa !10
  tail call void @rb_define_singleton_method(i64 noundef %40, ptr noundef nonnull @.str.36, ptr noundef nonnull @socket_s_tcp_fast_fallback_set, i32 noundef 1) #16
  %41 = tail call i64 @rb_intern(ptr noundef nonnull @.str.37) #16
  %42 = tail call i64 @rb_id2sym(i64 noundef %41) #16
  store i64 %42, ptr @sym_wait_writable, align 8, !tbaa !10
  ret void
}